target datalayout = "e-m:e-p270:32:32-p271:32:32-p272:64:64-i64:64-i128:128-f80:128-n8:16:32:64-S128"
target triple = "x86_64-pc-linux-gnu"

%"struct.cv::detail::CheckContext" = type { ptr, ptr, i32, i32, ptr, ptr, ptr }
%"class.cv::Mat" = type { i32, i32, i32, i32, ptr, ptr, ptr, ptr, ptr, ptr, %"struct.cv::MatSize", %"struct.cv::MatStep" }
%"struct.cv::MatSize" = type { ptr }
%"struct.cv::MatStep" = type { ptr, [2 x i64] }
%"class.cv::Point_" = type { i32, i32 }
%"class.cv::_InputArray" = type { i32, ptr, %"class.cv::Size_" }
%"class.cv::Size_" = type { i32, i32 }
%"class.cv::Vec.7" = type { %"class.cv::Matx.8" }
%"class.cv::Matx.8" = type { [2 x i32] }
%"class.cv::Vec.9" = type { %"class.cv::Matx.10" }
%"class.cv::Matx.10" = type { [2 x i16] }

@_ZZN2cv5rapid15drawSearchLinesERKNS_17_InputOutputArrayERKNS_11_InputArrayERKNS_7Scalar_IdEEE15__cv_check__107 = internal constant %"struct.cv::detail::CheckContext" { ptr @.str.3, ptr @.str.1, i32 107, i32 1, ptr @.str.4, ptr @.str.5, ptr @.str.6 }, align 8

; Function Attrs: mustprogress nounwind uwtable
define linkonce_odr hidden void @_ZN2cv4MatxIiLi2ELi1EEC2Ev(ptr noundef nonnull align 4 dereferenceable(8) %0) unnamed_addr #6 comdat align 2 {
  %2 = alloca ptr, align 8
  %3 = alloca i32, align 4
  store ptr %0, ptr %2, align 8
  %4 = load ptr, ptr %2, align 8
  store i32 0, ptr %3, align 4
  br label %5

5:                                                ; preds = %13, %1
  %6 = load i32, ptr %3, align 4
  %7 = icmp slt i32 %6, 2
  br i1 %7, label %8, label %16

8:                                                ; preds = %5
  %9 = getelementptr inbounds %"class.cv::Matx.8", ptr %4, i32 0, i32 0
  %10 = load i32, ptr %3, align 4
  %11 = sext i32 %10 to i64
  %12 = getelementptr inbounds [2 x i32], ptr %9, i64 0, i64 %11
  store i32 0, ptr %12, align 4
  br label %13

13:                                               ; preds = %8
  %14 = load i32, ptr %3, align 4
  %15 = add nsw i32 %14, 1
  store i32 %15, ptr %3, align 4
  br label %5, !llvm.loop !34

16:                                               ; preds = %5
  ret void
}

; Function Attrs: mustprogress nounwind uwtable
define linkonce_odr hidden noundef nonnull align 4 dereferenceable(4) ptr @_ZNK2cv3VecIiLi2EEixEi(ptr noundef nonnull align 4 dereferenceable(8) %0, i32 noundef %1) #6 comdat align 2 {
  %3 = alloca ptr, align 8
  %4 = alloca i32, align 4
  store ptr %0, ptr %3, align 8
  store i32 %1, ptr %4, align 4
  %5 = load ptr, ptr %3, align 8
  %6 = getelementptr inbounds %"class.cv::Matx.8", ptr %5, i32 0, i32 0
  %7 = load i32, ptr %4, align 4
  %8 = sext i32 %7 to i64
  %9 = getelementptr inbounds [2 x i32], ptr %6, i64 0, i64 %8
  ret ptr %9
}

; Function Attrs: mustprogress nounwind uwtable
define internal noundef i32 @_ZN2cvL13saturate_castIiEET_s(i16 noundef signext %0) #6 {
  %2 = alloca i16, align 2
  store i16 %0, ptr %2, align 2
  %3 = load i16, ptr %2, align 2
  %4 = sext i16 %3 to i32
  ret i32 %4
}

; Function Attrs: mustprogress uwtable
define linkonce_odr hidden void @_ZN2cv3VecIiLi2EEC2Ev(ptr noundef nonnull align 4 dereferenceable(8) %0) unnamed_addr #4 comdat align 2 {
  %2 = alloca ptr, align 8
  store ptr %0, ptr %2, align 8
  %3 = load ptr, ptr %2, align 8
  call void @_ZN2cv4MatxIiLi2ELi1EEC2Ev(ptr noundef nonnull align 4 dereferenceable(8) %3)
  ret void
}

; Function Attrs: mustprogress uwtable
define linkonce_odr hidden void @_ZN2cv6Point_IiEC2ERKNS_3VecIiLi2EEE(ptr noundef nonnull align 4 dereferenceable(8) %0, ptr noundef nonnull align 4 dereferenceable(8) %1) unnamed_addr #4 comdat align 2 {
  %3 = alloca ptr, align 8
  %4 = alloca ptr, align 8
  store ptr %0, ptr %3, align 8
  store ptr %1, ptr %4, align 8
  %5 = load ptr, ptr %3, align 8
  %6 = getelementptr inbounds %"class.cv::Point_", ptr %5, i32 0, i32 0
  %7 = load ptr, ptr %4, align 8
  %8 = call noundef nonnull align 4 dereferenceable(4) ptr @_ZNK2cv3VecIiLi2EEixEi(ptr noundef nonnull align 4 dereferenceable(8) %7, i32 noundef 0)
  %9 = load i32, ptr %8, align 4
  store i32 %9, ptr %6, align 4
  %10 = getelementptr inbounds %"class.cv::Point_", ptr %5, i32 0, i32 1
  %11 = load ptr, ptr %4, align 8
  %12 = call noundef nonnull align 4 dereferenceable(4) ptr @_ZNK2cv3VecIiLi2EEixEi(ptr noundef nonnull align 4 dereferenceable(8) %11, i32 noundef 1)
  %13 = load i32, ptr %12, align 4
  store i32 %13, ptr %10, align 4
  ret void
}

; Function Attrs: mustprogress uwtable
define linkonce_odr hidden void @_ZNK2cv3VecIsLi2EEcvNS0_IT_Li2EEEIiEEv(ptr dead_on_unwind noalias writable sret(%"class.cv::Vec.7") align 4 %0, ptr noundef nonnull align 2 dereferenceable(4) %1) #4 comdat align 2 {
  %3 = alloca ptr, align 8
  %4 = alloca ptr, align 8
  %5 = alloca i32, align 4
  store ptr %0, ptr %3, align 8
  store ptr %1, ptr %4, align 8
  %6 = load ptr, ptr %4, align 8
  call void @_ZN2cv3VecIiLi2EEC2Ev(ptr noundef nonnull align 4 dereferenceable(8) %0)
  store i32 0, ptr %5, align 4
  br label %7

7:                                                ; preds = %21, %2
  %8 = load i32, ptr %5, align 4
  %9 = icmp slt i32 %8, 2
  br i1 %9, label %10, label %24

10:                                               ; preds = %7
  %11 = getelementptr inbounds %"class.cv::Matx.10", ptr %6, i32 0, i32 0
  %12 = load i32, ptr %5, align 4
  %13 = sext i32 %12 to i64
  %14 = getelementptr inbounds [2 x i16], ptr %11, i64 0, i64 %13
  %15 = load i16, ptr %14, align 2
  %16 = call noundef i32 @_ZN2cvL13saturate_castIiEET_s(i16 noundef signext %15)
  %17 = getelementptr inbounds %"class.cv::Matx.8", ptr %0, i32 0, i32 0
  %18 = load i32, ptr %5, align 4
  %19 = sext i32 %18 to i64
  %20 = getelementptr inbounds [2 x i32], ptr %17, i64 0, i64 %19
  store i32 %16, ptr %20, align 4
  br label %21

21:                                               ; preds = %10
  %22 = load i32, ptr %5, align 4
  %23 = add nsw i32 %22, 1
  store i32 %23, ptr %5, align 4
  br label %7, !llvm.loop !7

24:                                               ; preds = %7
  ret void
}

; Function Attrs: mustprogress nounwind uwtable
define linkonce_odr hidden noundef nonnull align 2 dereferenceable(4) ptr @_ZN2cv3Mat2atINS_3VecIsLi2EEEEERT_ii(ptr noundef nonnull align 8 dereferenceable(96) %0, i32 noundef %1, i32 noundef %2) #6 comdat align 2 {
  %4 = alloca ptr, align 8
  %5 = alloca i32, align 4
  %6 = alloca i32, align 4
  store ptr %0, ptr %4, align 8
  store i32 %1, ptr %5, align 4
  store i32 %2, ptr %6, align 4
  %7 = load ptr, ptr %4, align 8
  %8 = getelementptr inbounds %"class.cv::Mat", ptr %7, i32 0, i32 4
  %9 = load ptr, ptr %8, align 8
  %10 = getelementptr inbounds %"class.cv::Mat", ptr %7, i32 0, i32 11
  %11 = getelementptr inbounds %"struct.cv::MatStep", ptr %10, i32 0, i32 0
  %12 = load ptr, ptr %11, align 8
  %13 = getelementptr inbounds i64, ptr %12, i64 0
  %14 = load i64, ptr %13, align 8
  %15 = load i32, ptr %5, align 4
  %16 = sext i32 %15 to i64
  %17 = mul i64 %14, %16
  %18 = getelementptr inbounds i8, ptr %9, i64 %17
  %19 = load i32, ptr %6, align 4
  %20 = sext i32 %19 to i64
  %21 = getelementptr inbounds %"class.cv::Vec.9", ptr %18, i64 %20
  ret ptr %21
}

; Function Attrs: mustprogress uwtable
define linkonce_odr hidden void @_ZNK2cv11_InputArray6getMatEi(ptr dead_on_unwind noalias writable sret(%"class.cv::Mat") align 8 %0, ptr noundef nonnull align 8 dereferenceable(24) %1, i32 noundef %2) #4 comdat align 2 {
  %4 = alloca ptr, align 8
  %5 = alloca ptr, align 8
  %6 = alloca i32, align 4
  store ptr %0, ptr %4, align 8
  store ptr %1, ptr %5, align 8
  store i32 %2, ptr %6, align 4
  %7 = load ptr, ptr %5, align 8
  %8 = call noundef i32 @_ZNK2cv11_InputArray4kindEv(ptr noundef nonnull align 8 dereferenceable(24) %7)
  %9 = icmp eq i32 %8, 65536
  br i1 %9, label %10, label %16

10:                                               ; preds = %3
  %11 = load i32, ptr %6, align 4
  %12 = icmp slt i32 %11, 0
  br i1 %12, label %13, label %16

13:                                               ; preds = %10
  %14 = getelementptr inbounds %"class.cv::_InputArray", ptr %7, i32 0, i32 1
  %15 = load ptr, ptr %14, align 8
  call void @_ZN2cv3MatC1ERKS0_(ptr noundef nonnull align 8 dereferenceable(96) %0, ptr noundef nonnull align 8 dereferenceable(96) %15)
  br label %18

16:                                               ; preds = %10, %3
  %17 = load i32, ptr %6, align 4
  call void @_ZNK2cv11_InputArray7getMat_Ei(ptr dead_on_unwind writable sret(%"class.cv::Mat") align 8 %0, ptr noundef nonnull align 8 dereferenceable(24) %7, i32 noundef %17)
  br label %18

18:                                               ; preds = %16, %13
  ret void
}

; Function Attrs: mustprogress uwtable
define void @_ZN2cv5rapid15drawSearchLinesERKNS_17_InputOutputArrayERKNS_11_InputArrayERKNS_7Scalar_IdEE(ptr noundef nonnull align 8 dereferenceable(24) %0, ptr noundef nonnull align 8 dereferenceable(24) %1, ptr noundef nonnull align 8 dereferenceable(32) %2) #4 personality ptr @__gxx_personality_v0 {
  %4 = alloca ptr, align 8
  %5 = alloca ptr, align 8
  %6 = alloca ptr, align 8
  %7 = alloca %"class.cv::Mat", align 8
  %8 = alloca ptr, align 8
  %9 = alloca i32, align 4
  %10 = alloca i32, align 4
  %11 = alloca %"class.cv::Point_", align 4
  %12 = alloca %"class.cv::Vec.7", align 4
  %13 = alloca %"class.cv::Point_", align 4
  %14 = alloca %"class.cv::Vec.7", align 4
  %15 = alloca %"class.cv::Point_", align 4
  %16 = alloca %"class.cv::Point_", align 4
  store ptr %0, ptr %4, align 8
  store ptr %1, ptr %5, align 8
  store ptr %2, ptr %6, align 8
  %17 = load ptr, ptr %5, align 8
  call void @_ZNK2cv11_InputArray6getMatEi(ptr dead_on_unwind writable sret(%"class.cv::Mat") align 8 %7, ptr noundef nonnull align 8 dereferenceable(24) %17, i32 noundef -1)
  br label %18

18:                                               ; preds = %3
  %19 = load ptr, ptr %5, align 8
  %20 = invoke noundef i32 @_ZNK2cv11_InputArray4typeEi(ptr noundef nonnull align 8 dereferenceable(24) %19, i32 noundef -1)
          to label %21 unwind label %24

21:                                               ; preds = %18
  %22 = icmp eq i32 %20, 11
  br i1 %22, label %23, label %28

23:                                               ; preds = %21
  br label %33

24:                                               ; preds = %54, %53, %52, %46, %45, %44, %41, %31, %28, %18
  %25 = landingpad { ptr, i32 }
          cleanup
  %26 = extractvalue { ptr, i32 } %25, 0
  store ptr %26, ptr %8, align 8
  %27 = extractvalue { ptr, i32 } %25, 1
  store i32 %27, ptr %9, align 4
  call void @_ZN2cv3MatD1Ev(ptr noundef nonnull align 8 dereferenceable(96) %7) #3
  br label %64

28:                                               ; preds = %21
  %29 = load ptr, ptr %5, align 8
  %30 = invoke noundef i32 @_ZNK2cv11_InputArray4typeEi(ptr noundef nonnull align 8 dereferenceable(24) %29, i32 noundef -1)
          to label %31 unwind label %24

31:                                               ; preds = %28
  invoke void @_ZN2cv6detail20check_failed_MatTypeEiiRKNS0_12CheckContextE(i32 noundef %30, i32 noundef 11, ptr noundef nonnull align 8 dereferenceable(48) @_ZZN2cv5rapid15drawSearchLinesERKNS_17_InputOutputArrayERKNS_11_InputArrayERKNS_7Scalar_IdEEE15__cv_check__107) #16
          to label %32 unwind label %24

32:                                               ; preds = %31
  unreachable

33:                                               ; preds = %23
  br label %34

34:                                               ; preds = %33
  br label %35

35:                                               ; preds = %34
  store i32 0, ptr %10, align 4
  br label %36

36:                                               ; preds = %60, %35
  %37 = load i32, ptr %10, align 4
  %38 = getelementptr inbounds %"class.cv::Mat", ptr %7, i32 0, i32 2
  %39 = load i32, ptr %38, align 8
  %40 = icmp slt i32 %37, %39
  br i1 %40, label %41, label %63

41:                                               ; preds = %36
  %42 = load i32, ptr %10, align 4
  %43 = invoke noundef nonnull align 2 dereferenceable(4) ptr @_ZN2cv3Mat2atINS_3VecIsLi2EEEEERT_ii(ptr noundef nonnull align 8 dereferenceable(96) %7, i32 noundef %42, i32 noundef 0)
          to label %44 unwind label %24

44:                                               ; preds = %41
  invoke void @_ZNK2cv3VecIsLi2EEcvNS0_IT_Li2EEEIiEEv(ptr dead_on_unwind writable sret(%"class.cv::Vec.7") align 4 %12, ptr noundef nonnull align 2 dereferenceable(4) %43)
          to label %45 unwind label %24

45:                                               ; preds = %44
  invoke void @_ZN2cv6Point_IiEC2ERKNS_3VecIiLi2EEE(ptr noundef nonnull align 4 dereferenceable(8) %11, ptr noundef nonnull align 4 dereferenceable(8) %12)
          to label %46 unwind label %24

46:                                               ; preds = %45
  %47 = load i32, ptr %10, align 4
  %48 = getelementptr inbounds %"class.cv::Mat", ptr %7, i32 0, i32 3
  %49 = load i32, ptr %48, align 4
  %50 = sub nsw i32 %49, 1
  %51 = invoke noundef nonnull align 2 dereferenceable(4) ptr @_ZN2cv3Mat2atINS_3VecIsLi2EEEEERT_ii(ptr noundef nonnull align 8 dereferenceable(96) %7, i32 noundef %47, i32 noundef %50)
          to label %52 unwind label %24

52:                                               ; preds = %46
  invoke void @_ZNK2cv3VecIsLi2EEcvNS0_IT_Li2EEEIiEEv(ptr dead_on_unwind writable sret(%"class.cv::Vec.7") align 4 %14, ptr noundef nonnull align 2 dereferenceable(4) %51)
          to label %53 unwind label %24

53:                                               ; preds = %52
  invoke void @_ZN2cv6Point_IiEC2ERKNS_3VecIiLi2EEE(ptr noundef nonnull align 4 dereferenceable(8) %13, ptr noundef nonnull align 4 dereferenceable(8) %14)
          to label %54 unwind label %24

54:                                               ; preds = %53
  %55 = load ptr, ptr %4, align 8
  call void @llvm.memcpy.p0.p0.i64(ptr align 4 %15, ptr align 4 %11, i64 8, i1 false)
  call void @llvm.memcpy.p0.p0.i64(ptr align 4 %16, ptr align 4 %13, i64 8, i1 false)
  %56 = load ptr, ptr %6, align 8
  %57 = load i64, ptr %15, align 4
  %58 = load i64, ptr %16, align 4
  invoke void @_ZN2cv4lineERKNS_17_InputOutputArrayENS_6Point_IiEES4_RKNS_7Scalar_IdEEiii(ptr noundef nonnull align 8 dereferenceable(24) %55, i64 %57, i64 %58, ptr noundef nonnull align 8 dereferenceable(32) %56, i32 noundef 1, i32 noundef 8, i32 noundef 0)
          to label %59 unwind label %24

59:                                               ; preds = %54
  br label %60

60:                                               ; preds = %59
  %61 = load i32, ptr %10, align 4
  %62 = add nsw i32 %61, 1
  store i32 %62, ptr %10, align 4
  br label %36, !llvm.loop !6

63:                                               ; preds = %36
  call void @_ZN2cv3MatD1Ev(ptr noundef nonnull align 8 dereferenceable(96) %7) #3
  ret void

64:                                               ; preds = %24
  %65 = load ptr, ptr %8, align 8
  %66 = load i32, ptr %9, align 4
  %67 = insertvalue { ptr, i32 } poison, ptr %65, 0
  %68 = insertvalue { ptr, i32 } %67, i32 %66, 1
  resume { ptr, i32 } %68
}