; Function Attrs: mustprogress uwtable
define void @_ZN2cv5rapid15drawSearchLinesERKNS_17_InputOutputArrayERKNS_11_InputArrayERKNS_7Scalar_IdEE(ptr noundef nonnull align 8 dereferenceable(24) %0, ptr noundef nonnull align 8 dereferenceable(24) %1, ptr noundef nonnull align 8 dereferenceable(32) %2) local_unnamed_addr #5 personality ptr @__gxx_personality_v0 {
  %4 = alloca %"class.cv::Mat", align 8
  %5 = tail call noundef i32 @_ZNK2cv11_InputArray4kindEv(ptr noundef nonnull align 8 dereferenceable(24) %1), !noalias !18
  %6 = icmp eq i32 %5, 65536
  br i1 %6, label %7, label %10

7:                                                ; preds = %3
  %8 = getelementptr inbounds i8, ptr %1, i64 8
  %9 = load ptr, ptr %8, align 8, !noalias !18
  call void @_ZN2cv3MatC1ERKS0_(ptr noundef nonnull align 8 dereferenceable(96) %4, ptr noundef nonnull align 8 dereferenceable(96) %9)
  br label %_ZNK2cv11_InputArray6getMatEi.exit

10:                                               ; preds = %3
  call void @_ZNK2cv11_InputArray7getMat_Ei(ptr dead_on_unwind nonnull writable sret(%"class.cv::Mat") align 8 %4, ptr noundef nonnull align 8 dereferenceable(24) %1, i32 noundef -1)
  br label %_ZNK2cv11_InputArray6getMatEi.exit

_ZNK2cv11_InputArray6getMatEi.exit:               ; preds = %7, %10
  %11 = invoke noundef i32 @_ZNK2cv11_InputArray4typeEi(ptr noundef nonnull align 8 dereferenceable(24) %1, i32 noundef -1)
          to label %12 unwind label %.loopexit.split-lp

12:                                               ; preds = %_ZNK2cv11_InputArray6getMatEi.exit
  %13 = icmp eq i32 %11, 11
  br i1 %13, label %.preheader, label %21

.preheader:                                       ; preds = %12
  %14 = getelementptr inbounds i8, ptr %4, i64 8
  %15 = load i32, ptr %14, align 8
  %16 = icmp sgt i32 %15, 0
  br i1 %16, label %.critedge.lr.ph, label %._crit_edge

.critedge.lr.ph:                                  ; preds = %.preheader
  %17 = getelementptr inbounds i8, ptr %4, i64 16
  %18 = getelementptr inbounds i8, ptr %4, i64 72
  %19 = getelementptr inbounds i8, ptr %4, i64 12
  br label %.critedge

.loopexit:                                        ; preds = %.critedge
  %lpad.loopexit = landingpad { ptr, i32 }
          cleanup
  br label %20

.loopexit.split-lp:                               ; preds = %_ZNK2cv11_InputArray6getMatEi.exit, %21, %23
  %lpad.loopexit.split-lp = landingpad { ptr, i32 }
          cleanup
  br label %20

20:                                               ; preds = %.loopexit.split-lp, %.loopexit
  %lpad.phi = phi { ptr, i32 } [ %lpad.loopexit, %.loopexit ], [ %lpad.loopexit.split-lp, %.loopexit.split-lp ]
  call void @_ZN2cv3MatD1Ev(ptr noundef nonnull align 8 dereferenceable(96) %4) #23
  resume { ptr, i32 } %lpad.phi

21:                                               ; preds = %12
  %22 = invoke noundef i32 @_ZNK2cv11_InputArray4typeEi(ptr noundef nonnull align 8 dereferenceable(24) %1, i32 noundef -1)
          to label %23 unwind label %.loopexit.split-lp

23:                                               ; preds = %21
  invoke void @_ZN2cv6detail20check_failed_MatTypeEiiRKNS0_12CheckContextE(i32 noundef %22, i32 noundef 11, ptr noundef nonnull align 8 dereferenceable(48) @_ZZN2cv5rapid15drawSearchLinesERKNS_17_InputOutputArrayERKNS_11_InputArrayERKNS_7Scalar_IdEEE15__cv_check__107) #24
          to label %24 unwind label %.loopexit.split-lp

24:                                               ; preds = %23
  unreachable

.critedge:                                        ; preds = %.critedge.lr.ph, %44
  %indvars.iv = phi i64 [ 0, %.critedge.lr.ph ], [ %indvars.iv.next, %44 ]
  %25 = load ptr, ptr %17, align 8
  %26 = load ptr, ptr %18, align 8
  %27 = load i64, ptr %26, align 8
  %28 = mul i64 %27, %indvars.iv
  %29 = getelementptr inbounds i8, ptr %25, i64 %28
  %30 = load i16, ptr %29, align 2, !noalias !21
  %31 = sext i16 %30 to i64
  %32 = getelementptr inbounds i8, ptr %29, i64 2
  %33 = load i16, ptr %32, align 2, !noalias !21
  %34 = sext i16 %33 to i64
  %35 = load i32, ptr %19, align 4
  %36 = sext i32 %35 to i64
  %37 = getelementptr %"class.cv::Vec.9", ptr %29, i64 %36
  %38 = getelementptr i8, ptr %37, i64 -4
  %39 = load i16, ptr %38, align 2, !noalias !24
  %40 = sext i16 %39 to i64
  %41 = getelementptr i8, ptr %37, i64 -2
  %42 = load i16, ptr %41, align 2, !noalias !24
  %43 = sext i16 %42 to i64
  %.sroa.219.0.insert.ext = shl nsw i64 %34, 32
  %.sroa.018.0.insert.ext = and i64 %31, 4294967295
  %.sroa.018.0.insert.insert = or disjoint i64 %.sroa.219.0.insert.ext, %.sroa.018.0.insert.ext
  %.sroa.2.0.insert.ext = shl nsw i64 %43, 32
  %.sroa.014.0.insert.ext = and i64 %40, 4294967295
  %.sroa.014.0.insert.insert = or disjoint i64 %.sroa.2.0.insert.ext, %.sroa.014.0.insert.ext
  invoke void @_ZN2cv4lineERKNS_17_InputOutputArrayENS_6Point_IiEES4_RKNS_7Scalar_IdEEiii(ptr noundef nonnull align 8 dereferenceable(24) %0, i64 %.sroa.018.0.insert.insert, i64 %.sroa.014.0.insert.insert, ptr noundef nonnull align 8 dereferenceable(32) %2, i32 noundef 1, i32 noundef 8, i32 noundef 0)
          to label %44 unwind label %.loopexit

44:                                               ; preds = %.critedge
  %indvars.iv.next = add nuw nsw i64 %indvars.iv, 1
  %45 = load i32, ptr %14, align 8
  %46 = sext i32 %45 to i64
  %47 = icmp slt i64 %indvars.iv.next, %46
  br i1 %47, label %.critedge, label %._crit_edge, !llvm.loop !27

._crit_edge:                                      ; preds = %44, %.preheader
  call void @_ZN2cv3MatD1Ev(ptr noundef nonnull align 8 dereferenceable(96) %4) #23
  ret void
}